target datalayout = "e-m:e-p270:32:32-p271:32:32-p272:64:64-i64:64-i128:128-f80:128-n8:16:32:64-S128"
target triple = "x86_64-pc-linux-gnu"

%struct.object_id = type { [32 x i8], i32 }

@.str.51 = private unnamed_addr constant [17 x i8] c"CHERRY_PICK_HEAD\00", align 1
@.str.106 = private unnamed_addr constant [12 x i8] c"REBASE_HEAD\00", align 1
@git_path_seq_dir.ret = internal global ptr null, align 8
@.str.178 = private unnamed_addr constant [10 x i8] c"sequencer\00", align 1
@rebase_path.ret = internal global ptr null, align 8
@.str.474 = private unnamed_addr constant [13 x i8] c"rebase-merge\00", align 1

; Function Attrs: inlinehint nounwind uwtable
define internal i32 @oideq(ptr noundef %0, ptr noundef %1) #1 {
  %3 = alloca ptr, align 8
  %4 = alloca ptr, align 8
  store ptr %0, ptr %3, align 8, !tbaa !84
  store ptr %1, ptr %4, align 8, !tbaa !84
  %5 = load ptr, ptr %3, align 8, !tbaa !84
  %6 = getelementptr inbounds nuw %struct.object_id, ptr %5, i32 0, i32 0
  %7 = getelementptr inbounds [32 x i8], ptr %6, i64 0, i64 0
  %8 = load ptr, ptr %4, align 8, !tbaa !84
  %9 = getelementptr inbounds nuw %struct.object_id, ptr %8, i32 0, i32 0
  %10 = getelementptr inbounds [32 x i8], ptr %9, i64 0, i64 0
  %11 = call i32 @memcmp(ptr noundef %7, ptr noundef %10, i64 noundef 32) #12
  %12 = icmp ne i32 %11, 0
  %13 = xor i1 %12, true
  %14 = zext i1 %13 to i32
  ret i32 %14
}

; Function Attrs: nounwind uwtable
define internal ptr @rebase_path() #0 {
  %1 = load ptr, ptr @rebase_path.ret, align 8, !tbaa !4
  %2 = icmp ne ptr %1, null
  br i1 %2, label %5, label %3

3:                                                ; preds = %0
  %4 = call ptr (ptr, ...) @git_pathdup(ptr noundef @.str.474)
  store ptr %4, ptr @rebase_path.ret, align 8, !tbaa !4
  br label %5

5:                                                ; preds = %3, %0
  %6 = load ptr, ptr @rebase_path.ret, align 8, !tbaa !4
  ret ptr %6
}

; Function Attrs: nounwind uwtable
define internal ptr @git_path_seq_dir() #0 {
  %1 = load ptr, ptr @git_path_seq_dir.ret, align 8, !tbaa !4
  %2 = icmp ne ptr %1, null
  br i1 %2, label %5, label %3

3:                                                ; preds = %0
  %4 = call ptr (ptr, ...) @git_pathdup(ptr noundef @.str.178)
  store ptr %4, ptr @git_path_seq_dir.ret, align 8, !tbaa !4
  br label %5

5:                                                ; preds = %3, %0
  %6 = load ptr, ptr @git_path_seq_dir.ret, align 8, !tbaa !4
  ret ptr %6
}

; Function Attrs: nounwind uwtable
define dso_local i32 @sequencer_determine_whence(ptr noundef %0, ptr noundef %1) #0 {
  %3 = alloca i32, align 4
  %4 = alloca ptr, align 8
  %5 = alloca ptr, align 8
  %6 = alloca %struct.object_id, align 4
  %7 = alloca %struct.object_id, align 4
  store ptr %0, ptr %4, align 8, !tbaa !9
  store ptr %1, ptr %5, align 8, !tbaa !23
  %8 = load ptr, ptr %4, align 8, !tbaa !9
  %9 = call ptr @get_main_ref_store(ptr noundef %8)
  %10 = call i32 @refs_ref_exists(ptr noundef %9, ptr noundef @.str.51)
  %11 = icmp ne i32 %10, 0
  br i1 %11, label %12, label %38

12:                                               ; preds = %2
  call void @llvm.lifetime.start.p0(i64 36, ptr %6) #11
  call void @llvm.lifetime.start.p0(i64 36, ptr %7) #11
  %13 = call ptr @git_path_seq_dir()
  %14 = call i32 @file_exists(ptr noundef %13)
  %15 = icmp ne i32 %14, 0
  br i1 %15, label %16, label %18

16:                                               ; preds = %12
  %17 = load ptr, ptr %5, align 8, !tbaa !23
  store i32 3, ptr %17, align 4, !tbaa !29
  br label %18

18:                                               ; preds = %16, %12
  %19 = call ptr @rebase_path()
  %20 = call i32 @file_exists(ptr noundef %19)
  %21 = icmp ne i32 %20, 0
  br i1 %21, label %22, label %35

22:                                               ; preds = %18
  %23 = load ptr, ptr %4, align 8, !tbaa !9
  %24 = call i32 @repo_get_oid(ptr noundef %23, ptr noundef @.str.106, ptr noundef %7)
  %25 = icmp ne i32 %24, 0
  br i1 %25, label %35, label %26

26:                                               ; preds = %22
  %27 = load ptr, ptr %4, align 8, !tbaa !9
  %28 = call i32 @repo_get_oid(ptr noundef %27, ptr noundef @.str.51, ptr noundef %6)
  %29 = icmp ne i32 %28, 0
  br i1 %29, label %35, label %30

30:                                               ; preds = %26
  %31 = call i32 @oideq(ptr noundef %7, ptr noundef %6)
  %32 = icmp ne i32 %31, 0
  br i1 %32, label %33, label %35

33:                                               ; preds = %30
  %34 = load ptr, ptr %5, align 8, !tbaa !23
  store i32 4, ptr %34, align 4, !tbaa !29
  br label %37

35:                                               ; preds = %30, %26, %22, %18
  %36 = load ptr, ptr %5, align 8, !tbaa !23
  store i32 2, ptr %36, align 4, !tbaa !29
  br label %37

37:                                               ; preds = %35, %33
  store i32 1, ptr %3, align 4
  call void @llvm.lifetime.end.p0(i64 36, ptr %7) #11
  call void @llvm.lifetime.end.p0(i64 36, ptr %6) #11
  br label %39

38:                                               ; preds = %2
  store i32 0, ptr %3, align 4
  br label %39

39:                                               ; preds = %38, %37
  %40 = load i32, ptr %3, align 4
  ret i32 %40
}