; Function Attrs: nounwind uwtable
define dso_local range(i32 0, 2) i32 @sequencer_determine_whence(ptr noundef %0, ptr noundef writeonly captures(none) %1) local_unnamed_addr #0 {
  %3 = alloca %struct.object_id, align 4
  %4 = alloca %struct.object_id, align 4
  %5 = tail call ptr @get_main_ref_store(ptr noundef %0) #20
  %6 = tail call i32 @refs_ref_exists(ptr noundef %5, ptr noundef nonnull @.str.51) #20
  %.not = icmp eq i32 %6, 0
  br i1 %.not, label %27, label %7

7:                                                ; preds = %2
  call void @llvm.lifetime.start.p0(i64 36, ptr nonnull %3) #20
  call void @llvm.lifetime.start.p0(i64 36, ptr nonnull %4) #20
  %8 = load ptr, ptr @git_path_seq_dir.ret, align 8, !tbaa !4
  %.not.i = icmp eq ptr %8, null
  br i1 %.not.i, label %9, label %git_path_seq_dir.exit

9:                                                ; preds = %7
  %10 = tail call ptr (ptr, ...) @git_pathdup(ptr noundef nonnull @.str.178)
  store ptr %10, ptr @git_path_seq_dir.ret, align 8, !tbaa !4
  br label %git_path_seq_dir.exit

git_path_seq_dir.exit:                            ; preds = %7, %9
  %11 = phi ptr [ %10, %9 ], [ %8, %7 ]
  %12 = tail call i32 @file_exists(ptr noundef %11) #20
  %.not6 = icmp eq i32 %12, 0
  br i1 %.not6, label %14, label %13

13:                                               ; preds = %git_path_seq_dir.exit
  store i32 3, ptr %1, align 4, !tbaa !21
  br label %14

14:                                               ; preds = %13, %git_path_seq_dir.exit
  %15 = load ptr, ptr @rebase_path.ret, align 8, !tbaa !4
  %.not.i11 = icmp eq ptr %15, null
  br i1 %.not.i11, label %16, label %rebase_path.exit

16:                                               ; preds = %14
  %17 = tail call ptr (ptr, ...) @git_pathdup(ptr noundef nonnull @.str.474)
  store ptr %17, ptr @rebase_path.ret, align 8, !tbaa !4
  br label %rebase_path.exit

rebase_path.exit:                                 ; preds = %14, %16
  %18 = phi ptr [ %17, %16 ], [ %15, %14 ]
  %19 = tail call i32 @file_exists(ptr noundef %18) #20
  %.not7 = icmp eq i32 %19, 0
  br i1 %.not7, label %25, label %20

20:                                               ; preds = %rebase_path.exit
  %21 = call i32 @repo_get_oid(ptr noundef %0, ptr noundef nonnull @.str.106, ptr noundef nonnull %4) #20
  %.not8 = icmp eq i32 %21, 0
  br i1 %.not8, label %22, label %25

22:                                               ; preds = %20
  %23 = call i32 @repo_get_oid(ptr noundef %0, ptr noundef nonnull @.str.51, ptr noundef nonnull %3) #20
  %.not9 = icmp eq i32 %23, 0
  br i1 %.not9, label %24, label %25

24:                                               ; preds = %22
  %bcmp.i = call i32 @bcmp(ptr noundef nonnull readonly dereferenceable(32) %4, ptr noundef nonnull readonly dereferenceable(32) %3, i64 32)
  %.not.i12.not = icmp eq i32 %bcmp.i, 0
  br i1 %.not.i12.not, label %26, label %25

25:                                               ; preds = %24, %22, %20, %rebase_path.exit
  br label %26

26:                                               ; preds = %24, %25
  %storemerge = phi i32 [ 2, %25 ], [ 4, %24 ]
  store i32 %storemerge, ptr %1, align 4, !tbaa !21
  call void @llvm.lifetime.end.p0(i64 36, ptr nonnull %4) #20
  call void @llvm.lifetime.end.p0(i64 36, ptr nonnull %3) #20
  br label %27

27:                                               ; preds = %2, %26
  %.0 = phi i32 [ 1, %26 ], [ 0, %2 ]
  ret i32 %.0
}